target datalayout = "e-m:e-p270:32:32-p271:32:32-p272:64:64-i64:64-i128:128-f80:128-n8:16:32:64-S128"
target triple = "x86_64-pc-linux-gnu"

%struct.URLContext = type { ptr, ptr, ptr, ptr, i32, i32, i32, i32, %struct.AVIOInterruptCB, i64, ptr, ptr, i32 }
%struct.AVIOInterruptCB = type { ptr, ptr }
%struct.UDPContext = type { ptr, i32, i32, i32, i32, i32, i32, i32, i32, i32, i32, %struct.sockaddr_storage, i32, i32, i32, ptr, i32, i64, i64, i32, i64, %union.pthread_mutex_t, %union.pthread_cond_t, i32, [65540 x i8], i32, ptr, i32, %struct.sockaddr_storage, ptr, ptr, %struct.IPSourceFilters }
%union.pthread_mutex_t = type { %struct.__pthread_mutex_s }
%struct.__pthread_mutex_s = type { i32, i32, i32, i32, i32, i16, i16, %struct.__pthread_internal_list }
%struct.__pthread_internal_list = type { ptr, ptr }
%union.pthread_cond_t = type { %struct.__pthread_cond_s }
%struct.__pthread_cond_s = type { %union.__atomic_wide_counter, %union.__atomic_wide_counter, [2 x i32], [2 x i32], i32, i32, [2 x i32] }
%union.__atomic_wide_counter = type { i64 }
%struct.sockaddr_storage = type { i16, [118 x i8], i64 }
%struct.IPSourceFilters = type { i32, i32, ptr, ptr }
%struct.timespec = type { i64, i64 }

@.str.52 = private unnamed_addr constant [55 x i8] c"Part of datagram lost due to insufficient buffer size\0A\00", align 1

; Function Attrs: nounwind uwtable
define internal i32 @udp_read(ptr noundef %0, ptr noundef %1, i32 noundef %2) #0 {
  %4 = alloca i32, align 4
  %5 = alloca ptr, align 8
  %6 = alloca ptr, align 8
  %7 = alloca i32, align 4
  %8 = alloca ptr, align 8
  %9 = alloca i32, align 4
  %10 = alloca %struct.sockaddr_storage, align 8
  %11 = alloca i32, align 4
  %12 = alloca i32, align 4
  %13 = alloca i32, align 4
  %14 = alloca [4 x i8], align 1
  %15 = alloca i32, align 4
  %16 = alloca i32, align 4
  %17 = alloca i64, align 8
  %18 = alloca %struct.timespec, align 8
  %19 = alloca i32, align 4
  store ptr %0, ptr %5, align 8, !tbaa !4
  store ptr %1, ptr %6, align 8, !tbaa !9
  store i32 %2, ptr %7, align 4, !tbaa !20
  call void @llvm.lifetime.start.p0(i64 8, ptr %8) #9
  %20 = load ptr, ptr %5, align 8, !tbaa !4
  %21 = getelementptr inbounds nuw %struct.URLContext, ptr %20, i32 0, i32 2
  %22 = load ptr, ptr %21, align 8, !tbaa !11
  store ptr %22, ptr %8, align 8, !tbaa !18
  call void @llvm.lifetime.start.p0(i64 4, ptr %9) #9
  call void @llvm.lifetime.start.p0(i64 128, ptr %10) #9
  call void @llvm.lifetime.start.p0(i64 4, ptr %11) #9
  store i32 128, ptr %11, align 4, !tbaa !20
  call void @llvm.lifetime.start.p0(i64 4, ptr %12) #9
  call void @llvm.lifetime.start.p0(i64 4, ptr %13) #9
  %23 = load ptr, ptr %5, align 8, !tbaa !4
  %24 = getelementptr inbounds nuw %struct.URLContext, ptr %23, i32 0, i32 4
  %25 = load i32, ptr %24, align 8, !tbaa !57
  %26 = and i32 %25, 8
  store i32 %26, ptr %13, align 4, !tbaa !20
  %27 = load ptr, ptr %8, align 8, !tbaa !18
  %28 = getelementptr inbounds nuw %struct.UDPContext, ptr %27, i32 0, i32 15
  %29 = load ptr, ptr %28, align 8, !tbaa !65
  %30 = icmp ne ptr %29, null
  br i1 %30, label %31, label %135

31:                                               ; preds = %3
  %32 = load ptr, ptr %8, align 8, !tbaa !18
  %33 = getelementptr inbounds nuw %struct.UDPContext, ptr %32, i32 0, i32 21
  %34 = call i32 @pthread_mutex_lock(ptr noundef %33) #9
  br label %35

35:                                               ; preds = %133, %31
  %36 = load ptr, ptr %8, align 8, !tbaa !18
  %37 = getelementptr inbounds nuw %struct.UDPContext, ptr %36, i32 0, i32 15
  %38 = load ptr, ptr %37, align 8, !tbaa !65
  %39 = call i64 @av_fifo_can_read(ptr noundef %38)
  %40 = trunc i64 %39 to i32
  store i32 %40, ptr %12, align 4, !tbaa !20
  %41 = load i32, ptr %12, align 4, !tbaa !20
  %42 = icmp ne i32 %41, 0
  br i1 %42, label %43, label %77

43:                                               ; preds = %35
  call void @llvm.lifetime.start.p0(i64 4, ptr %14) #9
  %44 = load ptr, ptr %8, align 8, !tbaa !18
  %45 = getelementptr inbounds nuw %struct.UDPContext, ptr %44, i32 0, i32 15
  %46 = load ptr, ptr %45, align 8, !tbaa !65
  %47 = getelementptr inbounds [4 x i8], ptr %14, i64 0, i64 0
  %48 = call i32 @av_fifo_read(ptr noundef %46, ptr noundef %47, i64 noundef 4)
  %49 = getelementptr inbounds [4 x i8], ptr %14, i64 0, i64 0
  %50 = load i32, ptr %49, align 1, !tbaa !56
  store i32 %50, ptr %12, align 4, !tbaa !20
  %51 = load i32, ptr %12, align 4, !tbaa !20
  %52 = load i32, ptr %7, align 4, !tbaa !20
  %53 = icmp sgt i32 %51, %52
  br i1 %53, label %54, label %57

54:                                               ; preds = %43
  %55 = load ptr, ptr %5, align 8, !tbaa !4
  call void (ptr, i32, ptr, ...) @av_log(ptr noundef %55, i32 noundef 24, ptr noundef @.str.52)
  %56 = load i32, ptr %7, align 4, !tbaa !20
  store i32 %56, ptr %12, align 4, !tbaa !20
  br label %57

57:                                               ; preds = %54, %43
  %58 = load ptr, ptr %8, align 8, !tbaa !18
  %59 = getelementptr inbounds nuw %struct.UDPContext, ptr %58, i32 0, i32 15
  %60 = load ptr, ptr %59, align 8, !tbaa !65
  %61 = load ptr, ptr %6, align 8, !tbaa !9
  %62 = load i32, ptr %12, align 4, !tbaa !20
  %63 = sext i32 %62 to i64
  %64 = call i32 @av_fifo_read(ptr noundef %60, ptr noundef %61, i64 noundef %63)
  %65 = load ptr, ptr %8, align 8, !tbaa !18
  %66 = getelementptr inbounds nuw %struct.UDPContext, ptr %65, i32 0, i32 15
  %67 = load ptr, ptr %66, align 8, !tbaa !65
  %68 = getelementptr inbounds [4 x i8], ptr %14, i64 0, i64 0
  %69 = load i32, ptr %68, align 1, !tbaa !56
  %70 = load i32, ptr %12, align 4, !tbaa !20
  %71 = sub i32 %69, %70
  %72 = zext i32 %71 to i64
  call void @av_fifo_drain2(ptr noundef %67, i64 noundef %72)
  %73 = load ptr, ptr %8, align 8, !tbaa !18
  %74 = getelementptr inbounds nuw %struct.UDPContext, ptr %73, i32 0, i32 21
  %75 = call i32 @pthread_mutex_unlock(ptr noundef %74) #9
  %76 = load i32, ptr %12, align 4, !tbaa !20
  store i32 %76, ptr %4, align 4
  store i32 1, ptr %15, align 4
  call void @llvm.lifetime.end.p0(i64 4, ptr %14) #9
  br label %174

77:                                               ; preds = %35
  %78 = load ptr, ptr %8, align 8, !tbaa !18
  %79 = getelementptr inbounds nuw %struct.UDPContext, ptr %78, i32 0, i32 16
  %80 = load i32, ptr %79, align 8, !tbaa !67
  %81 = icmp ne i32 %80, 0
  br i1 %81, label %82, label %90

82:                                               ; preds = %77
  call void @llvm.lifetime.start.p0(i64 4, ptr %16) #9
  %83 = load ptr, ptr %8, align 8, !tbaa !18
  %84 = getelementptr inbounds nuw %struct.UDPContext, ptr %83, i32 0, i32 16
  %85 = load i32, ptr %84, align 8, !tbaa !67
  store i32 %85, ptr %16, align 4, !tbaa !20
  %86 = load ptr, ptr %8, align 8, !tbaa !18
  %87 = getelementptr inbounds nuw %struct.UDPContext, ptr %86, i32 0, i32 21
  %88 = call i32 @pthread_mutex_unlock(ptr noundef %87) #9
  %89 = load i32, ptr %16, align 4, !tbaa !20
  store i32 %89, ptr %4, align 4
  store i32 1, ptr %15, align 4
  call void @llvm.lifetime.end.p0(i64 4, ptr %16) #9
  br label %174

90:                                               ; preds = %77
  %91 = load i32, ptr %13, align 4, !tbaa !20
  %92 = icmp ne i32 %91, 0
  br i1 %92, label %93, label %97

93:                                               ; preds = %90
  %94 = load ptr, ptr %8, align 8, !tbaa !18
  %95 = getelementptr inbounds nuw %struct.UDPContext, ptr %94, i32 0, i32 21
  %96 = call i32 @pthread_mutex_unlock(ptr noundef %95) #9
  store i32 -11, ptr %4, align 4
  store i32 1, ptr %15, align 4
  br label %174

97:                                               ; preds = %90
  call void @llvm.lifetime.start.p0(i64 8, ptr %17) #9
  %98 = call i64 @av_gettime()
  %99 = add nsw i64 %98, 100000
  store i64 %99, ptr %17, align 8, !tbaa !60
  call void @llvm.lifetime.start.p0(i64 16, ptr %18) #9
  %100 = getelementptr inbounds nuw %struct.timespec, ptr %18, i32 0, i32 0
  %101 = load i64, ptr %17, align 8, !tbaa !60
  %102 = sdiv i64 %101, 1000000
  store i64 %102, ptr %100, align 8, !tbaa !68
  %103 = getelementptr inbounds nuw %struct.timespec, ptr %18, i32 0, i32 1
  %104 = load i64, ptr %17, align 8, !tbaa !60
  %105 = srem i64 %104, 1000000
  %106 = mul nsw i64 %105, 1000
  store i64 %106, ptr %103, align 8, !tbaa !70
  call void @llvm.lifetime.start.p0(i64 4, ptr %19) #9
  %107 = load ptr, ptr %8, align 8, !tbaa !18
  %108 = getelementptr inbounds nuw %struct.UDPContext, ptr %107, i32 0, i32 22
  %109 = load ptr, ptr %8, align 8, !tbaa !18
  %110 = getelementptr inbounds nuw %struct.UDPContext, ptr %109, i32 0, i32 21
  %111 = call i32 @pthread_cond_timedwait(ptr noundef %108, ptr noundef %110, ptr noundef %18)
  store i32 %111, ptr %19, align 4, !tbaa !20
  %112 = load i32, ptr %19, align 4, !tbaa !20
  %113 = icmp ne i32 %112, 0
  br i1 %113, label %114, label %126

114:                                              ; preds = %97
  %115 = load ptr, ptr %8, align 8, !tbaa !18
  %116 = getelementptr inbounds nuw %struct.UDPContext, ptr %115, i32 0, i32 21
  %117 = call i32 @pthread_mutex_unlock(ptr noundef %116) #9
  %118 = load i32, ptr %19, align 4, !tbaa !20
  %119 = icmp eq i32 %118, 110
  br i1 %119, label %120, label %121

120:                                              ; preds = %114
  br label %123

121:                                              ; preds = %114
  %122 = load i32, ptr %19, align 4, !tbaa !20
  br label %123

123:                                              ; preds = %121, %120
  %124 = phi i32 [ 11, %120 ], [ %122, %121 ]
  %125 = sub nsw i32 0, %124
  store i32 %125, ptr %4, align 4
  store i32 1, ptr %15, align 4
  br label %127

126:                                              ; preds = %97
  store i32 1, ptr %13, align 4, !tbaa !20
  store i32 0, ptr %15, align 4
  br label %127

127:                                              ; preds = %126, %123
  call void @llvm.lifetime.end.p0(i64 4, ptr %19) #9
  call void @llvm.lifetime.end.p0(i64 16, ptr %18) #9
  call void @llvm.lifetime.end.p0(i64 8, ptr %17) #9
  %128 = load i32, ptr %15, align 4
  switch i32 %128, label %174 [
    i32 0, label %129
  ]

129:                                              ; preds = %127
  br label %130

130:                                              ; preds = %129
  br label %131

131:                                              ; preds = %130
  br label %132

132:                                              ; preds = %131
  br label %133

133:                                              ; preds = %132
  br i1 true, label %35, label %134

134:                                              ; preds = %133
  br label %135

135:                                              ; preds = %134, %3
  %136 = load ptr, ptr %5, align 8, !tbaa !4
  %137 = getelementptr inbounds nuw %struct.URLContext, ptr %136, i32 0, i32 4
  %138 = load i32, ptr %137, align 8, !tbaa !57
  %139 = and i32 %138, 8
  %140 = icmp ne i32 %139, 0
  br i1 %140, label %151, label %141

141:                                              ; preds = %135
  %142 = load ptr, ptr %8, align 8, !tbaa !18
  %143 = getelementptr inbounds nuw %struct.UDPContext, ptr %142, i32 0, i32 1
  %144 = load i32, ptr %143, align 8, !tbaa !30
  %145 = call i32 @ff_network_wait_fd(i32 noundef %144, i32 noundef 0)
  store i32 %145, ptr %9, align 4, !tbaa !20
  %146 = load i32, ptr %9, align 4, !tbaa !20
  %147 = icmp slt i32 %146, 0
  br i1 %147, label %148, label %150

148:                                              ; preds = %141
  %149 = load i32, ptr %9, align 4, !tbaa !20
  store i32 %149, ptr %4, align 4
  store i32 1, ptr %15, align 4
  br label %174

150:                                              ; preds = %141
  br label %151

151:                                              ; preds = %150, %135
  %152 = load ptr, ptr %8, align 8, !tbaa !18
  %153 = getelementptr inbounds nuw %struct.UDPContext, ptr %152, i32 0, i32 1
  %154 = load i32, ptr %153, align 8, !tbaa !30
  %155 = load ptr, ptr %6, align 8, !tbaa !9
  %156 = load i32, ptr %7, align 4, !tbaa !20
  %157 = sext i32 %156 to i64
  %158 = call i64 @recvfrom(i32 noundef %154, ptr noundef %155, i64 noundef %157, i32 noundef 0, ptr noundef %10, ptr noundef %11)
  %159 = trunc i64 %158 to i32
  store i32 %159, ptr %9, align 4, !tbaa !20
  %160 = load i32, ptr %9, align 4, !tbaa !20
  %161 = icmp slt i32 %160, 0
  br i1 %161, label %162, label %166

162:                                              ; preds = %151
  %163 = call ptr @__errno_location() #11
  %164 = load i32, ptr %163, align 4, !tbaa !20
  %165 = sub nsw i32 0, %164
  store i32 %165, ptr %4, align 4
  store i32 1, ptr %15, align 4
  br label %174

166:                                              ; preds = %151
  %167 = load ptr, ptr %8, align 8, !tbaa !18
  %168 = getelementptr inbounds nuw %struct.UDPContext, ptr %167, i32 0, i32 31
  %169 = call i32 @ff_ip_check_source_lists(ptr noundef %10, ptr noundef %168)
  %170 = icmp ne i32 %169, 0
  br i1 %170, label %171, label %172

171:                                              ; preds = %166
  store i32 -4, ptr %4, align 4
  store i32 1, ptr %15, align 4
  br label %174

172:                                              ; preds = %166
  %173 = load i32, ptr %9, align 4, !tbaa !20
  store i32 %173, ptr %4, align 4
  store i32 1, ptr %15, align 4
  br label %174

174:                                              ; preds = %172, %171, %162, %148, %127, %93, %82, %57
  call void @llvm.lifetime.end.p0(i64 4, ptr %13) #9
  call void @llvm.lifetime.end.p0(i64 4, ptr %12) #9
  call void @llvm.lifetime.end.p0(i64 4, ptr %11) #9
  call void @llvm.lifetime.end.p0(i64 128, ptr %10) #9
  call void @llvm.lifetime.end.p0(i64 4, ptr %9) #9
  call void @llvm.lifetime.end.p0(i64 8, ptr %8) #9
  %175 = load i32, ptr %4, align 4
  ret i32 %175
}