; Function Attrs: nounwind uwtable
define internal i32 @udp_read(ptr noundef %0, ptr noundef %1, i32 noundef %2) #0 {
  %4 = alloca %struct.sockaddr_storage, align 8
  %5 = alloca i32, align 4
  %6 = alloca [4 x i8], align 4
  %7 = alloca %struct.timespec, align 8
  %8 = getelementptr inbounds nuw i8, ptr %0, i64 16
  %9 = load ptr, ptr %8, align 8, !tbaa !4
  call void @llvm.lifetime.start.p0(i64 128, ptr nonnull %4) #11
  call void @llvm.lifetime.start.p0(i64 4, ptr nonnull %5) #11
  store i32 128, ptr %5, align 4, !tbaa !15
  %10 = getelementptr inbounds nuw i8, ptr %0, i64 32
  %11 = load i32, ptr %10, align 8, !tbaa !48
  %12 = and i32 %11, 8
  %13 = getelementptr inbounds nuw i8, ptr %9, i64 192
  %14 = load ptr, ptr %13, align 8, !tbaa !64
  %.not = icmp eq ptr %14, null
  br i1 %.not, label %61, label %15

15:                                               ; preds = %3
  %16 = getelementptr inbounds nuw i8, ptr %9, i64 240
  %17 = tail call i32 @pthread_mutex_lock(ptr noundef nonnull %16) #11
  %18 = load ptr, ptr %13, align 8, !tbaa !64
  %19 = tail call i64 @av_fifo_can_read(ptr noundef %18) #11
  %20 = and i64 %19, 4294967295
  %.not5564 = icmp eq i64 %20, 0
  br i1 %.not5564, label %.lr.ph, label %._crit_edge

.lr.ph:                                           ; preds = %15
  %21 = icmp eq i32 %12, 0
  %22 = getelementptr inbounds nuw i8, ptr %9, i64 200
  %23 = getelementptr inbounds nuw i8, ptr %7, i64 8
  %24 = getelementptr inbounds nuw i8, ptr %9, i64 280
  br label %39

._crit_edge:                                      ; preds = %57, %15
  call void @llvm.lifetime.start.p0(i64 4, ptr nonnull %6) #11
  %25 = load ptr, ptr %13, align 8, !tbaa !64
  %26 = call i32 @av_fifo_read(ptr noundef %25, ptr noundef nonnull %6, i64 noundef 4) #11
  %27 = load i32, ptr %6, align 4, !tbaa !47
  %28 = icmp sgt i32 %27, %2
  br i1 %28, label %29, label %30

29:                                               ; preds = %._crit_edge
  call void (ptr, i32, ptr, ...) @av_log(ptr noundef %0, i32 noundef 24, ptr noundef nonnull @.str.52) #11
  br label %30

30:                                               ; preds = %29, %._crit_edge
  %.043 = phi i32 [ %2, %29 ], [ %27, %._crit_edge ]
  %31 = load ptr, ptr %13, align 8, !tbaa !64
  %32 = sext i32 %.043 to i64
  %33 = call i32 @av_fifo_read(ptr noundef %31, ptr noundef %1, i64 noundef %32) #11
  %34 = load ptr, ptr %13, align 8, !tbaa !64
  %35 = load i32, ptr %6, align 4, !tbaa !47
  %36 = sub i32 %35, %.043
  %37 = zext i32 %36 to i64
  call void @av_fifo_drain2(ptr noundef %34, i64 noundef %37) #11
  %38 = call i32 @pthread_mutex_unlock(ptr noundef nonnull %16) #11
  call void @llvm.lifetime.end.p0(i64 4, ptr nonnull %6) #11
  br label %81

39:                                               ; preds = %.lr.ph, %57
  %.04565 = phi i1 [ %21, %.lr.ph ], [ false, %57 ]
  %40 = load i32, ptr %22, align 8, !tbaa !66
  %.not56 = icmp eq i32 %40, 0
  br i1 %.not56, label %43, label %41

41:                                               ; preds = %39
  %42 = call i32 @pthread_mutex_unlock(ptr noundef nonnull %16) #11
  br label %81

43:                                               ; preds = %39
  br i1 %.04565, label %46, label %44

44:                                               ; preds = %43
  %45 = call i32 @pthread_mutex_unlock(ptr noundef nonnull %16) #11
  br label %81

46:                                               ; preds = %43
  %47 = call i64 @av_gettime() #11
  %48 = add nsw i64 %47, 100000
  call void @llvm.lifetime.start.p0(i64 16, ptr nonnull %7) #11
  %49 = sdiv i64 %48, 1000000
  store i64 %49, ptr %7, align 8, !tbaa !67
  %50 = srem i64 %48, 1000000
  %51 = mul nsw i64 %50, 1000
  store i64 %51, ptr %23, align 8, !tbaa !69
  %52 = call i32 @pthread_cond_timedwait(ptr noundef nonnull %24, ptr noundef nonnull %16, ptr noundef nonnull %7) #11
  %.not58 = icmp eq i32 %52, 0
  br i1 %.not58, label %57, label %.thread

.thread:                                          ; preds = %46
  %53 = call i32 @pthread_mutex_unlock(ptr noundef nonnull %16) #11
  %54 = icmp eq i32 %52, 110
  %55 = select i1 %54, i32 11, i32 %52
  %56 = sub nsw i32 0, %55
  call void @llvm.lifetime.end.p0(i64 16, ptr nonnull %7) #11
  br label %81

57:                                               ; preds = %46
  call void @llvm.lifetime.end.p0(i64 16, ptr nonnull %7) #11
  %58 = load ptr, ptr %13, align 8, !tbaa !64
  %59 = call i64 @av_fifo_can_read(ptr noundef %58) #11
  %60 = and i64 %59, 4294967295
  %.not55 = icmp eq i64 %60, 0
  br i1 %.not55, label %39, label %._crit_edge

61:                                               ; preds = %3
  %.not53 = icmp eq i32 %12, 0
  br i1 %.not53, label %62, label %67

62:                                               ; preds = %61
  %63 = getelementptr inbounds nuw i8, ptr %9, i64 8
  %64 = load i32, ptr %63, align 8, !tbaa !30
  %65 = tail call i32 @ff_network_wait_fd(i32 noundef %64, i32 noundef 0) #11
  %66 = icmp slt i32 %65, 0
  br i1 %66, label %81, label %67

67:                                               ; preds = %62, %61
  %68 = getelementptr inbounds nuw i8, ptr %9, i64 8
  %69 = load i32, ptr %68, align 8, !tbaa !30
  %70 = sext i32 %2 to i64
  %71 = call i64 @recvfrom(i32 noundef %69, ptr noundef %1, i64 noundef %70, i32 noundef 0, ptr noundef nonnull %4, ptr noundef nonnull %5) #11
  %72 = trunc i64 %71 to i32
  %73 = icmp slt i32 %72, 0
  br i1 %73, label %74, label %78

74:                                               ; preds = %67
  %75 = tail call ptr @__errno_location() #13
  %76 = load i32, ptr %75, align 4, !tbaa !15
  %77 = sub nsw i32 0, %76
  br label %81

78:                                               ; preds = %67
  %79 = getelementptr inbounds nuw i8, ptr %9, i64 66040
  %80 = call i32 @ff_ip_check_source_lists(ptr noundef nonnull %4, ptr noundef nonnull %79) #11
  %.not54 = icmp eq i32 %80, 0
  %. = select i1 %.not54, i32 %72, i32 -4
  br label %81

81:                                               ; preds = %.thread, %78, %62, %74, %44, %41, %30
  %.1 = phi i32 [ %.043, %30 ], [ %40, %41 ], [ -11, %44 ], [ %77, %74 ], [ %65, %62 ], [ %., %78 ], [ %56, %.thread ]
  call void @llvm.lifetime.end.p0(i64 4, ptr nonnull %5) #11
  call void @llvm.lifetime.end.p0(i64 128, ptr nonnull %4) #11
  ret i32 %.1
}